---
triple:          'arm64-apple-darwin'
binary-path:     test_ulliststr
relocations:
  - { offsetInCU: 0x2E0D, offset: 0x2E0D, size: 0x8, addend: 0x0, symName: __ZNSt3__119__debug_db_insert_cB7v160006INS_12basic_stringIcNS_11char_traitsIcEENS_9allocatorIcEEEEEEvPT_, symObjAddr: 0xE60, symBinAddr: 0x10000322C, symSize: 0x10 }
  - { offsetInCU: 0x2E3E, offset: 0x2E3E, size: 0x8, addend: 0x0, symName: __ZNSt3__130__libcpp_is_constant_evaluatedB7v160006Ev, symObjAddr: 0x1000, symBinAddr: 0x1000033CC, symSize: 0xC }
  - { offsetInCU: 0x2E5B, offset: 0x2E5B, size: 0x8, addend: 0x0, symName: __ZNSt3__117__libcpp_allocateB7v160006Emm, symObjAddr: 0x12F8, symBinAddr: 0x1000036C4, symSize: 0x28 }
  - { offsetInCU: 0x2E98, offset: 0x2E98, size: 0x8, addend: 0x0, symName: __ZNSt3__121__libcpp_operator_newB7v160006IJmEEEPvDpT_, symObjAddr: 0x1334, symBinAddr: 0x100003700, symSize: 0x24 }
  - { offsetInCU: 0x2ED1, offset: 0x2ED1, size: 0x8, addend: 0x0, symName: __ZNSt3__118__constexpr_strlenB7v160006EPKc, symObjAddr: 0x1554, symBinAddr: 0x100003920, symSize: 0x24 }
  - { offsetInCU: 0x3078, offset: 0x3078, size: 0x8, addend: 0x0, symName: __ZSt28__throw_bad_array_new_lengthB7v160006v, symObjAddr: 0x12C4, symBinAddr: 0x100003690, symSize: 0x34 }
  - { offsetInCU: 0x559F, offset: 0x559F, size: 0x8, addend: 0x0, symName: __ZN9ULListStrC2Ev, symObjAddr: 0x0, symBinAddr: 0x1000023CC, symSize: 0x20 }
  - { offsetInCU: 0x55C9, offset: 0x55C9, size: 0x8, addend: 0x0, symName: __ZN9ULListStrC1Ev, symObjAddr: 0x20, symBinAddr: 0x1000023EC, symSize: 0x2C }
  - { offsetInCU: 0x55F3, offset: 0x55F3, size: 0x8, addend: 0x0, symName: __ZN9ULListStrD2Ev, symObjAddr: 0x4C, symBinAddr: 0x100002418, symSize: 0x2C }
  - { offsetInCU: 0x561D, offset: 0x561D, size: 0x8, addend: 0x0, symName: __ZN9ULListStr5clearEv, symObjAddr: 0x78, symBinAddr: 0x100002444, symSize: 0xC0 }
  - { offsetInCU: 0x5657, offset: 0x5657, size: 0x8, addend: 0x0, symName: __ZN9ULListStrD1Ev, symObjAddr: 0x138, symBinAddr: 0x100002504, symSize: 0x2C }
  - { offsetInCU: 0x5681, offset: 0x5681, size: 0x8, addend: 0x0, symName: __ZNK9ULListStr5emptyEv, symObjAddr: 0x164, symBinAddr: 0x100002530, symSize: 0x24 }
  - { offsetInCU: 0x56A7, offset: 0x56A7, size: 0x8, addend: 0x0, symName: __ZNK9ULListStr4sizeEv, symObjAddr: 0x188, symBinAddr: 0x100002554, symSize: 0x18 }
  - { offsetInCU: 0x56CD, offset: 0x56CD, size: 0x8, addend: 0x0, symName: __ZN9ULListStr9push_backERKNSt3__112basic_stringIcNS0_11char_traitsIcEENS0_9allocatorIcEEEE, symObjAddr: 0x1A0, symBinAddr: 0x10000256C, symSize: 0x164 }
  - { offsetInCU: 0x571D, offset: 0x571D, size: 0x8, addend: 0x0, symName: __ZN9ULListStr4ItemC1Ev, symObjAddr: 0x304, symBinAddr: 0x1000026D0, symSize: 0x2C }
  - { offsetInCU: 0x5745, offset: 0x5745, size: 0x8, addend: 0x0, symName: __ZN9ULListStr8pop_backEv, symObjAddr: 0x330, symBinAddr: 0x1000026FC, symSize: 0x1C4 }
  - { offsetInCU: 0x577F, offset: 0x577F, size: 0x8, addend: 0x0, symName: __ZNSt3__112basic_stringIcNS_11char_traitsIcEENS_9allocatorIcEEEaSB7v160006EPKc, symObjAddr: 0x4F4, symBinAddr: 0x1000028C0, symSize: 0x2C }
  - { offsetInCU: 0x57B2, offset: 0x57B2, size: 0x8, addend: 0x0, symName: __ZN9ULListStr4ItemD1Ev, symObjAddr: 0x520, symBinAddr: 0x1000028EC, symSize: 0x2C }
  - { offsetInCU: 0x57DC, offset: 0x57DC, size: 0x8, addend: 0x0, symName: __ZN9ULListStr10push_frontERKNSt3__112basic_stringIcNS0_11char_traitsIcEENS0_9allocatorIcEEEE, symObjAddr: 0x54C, symBinAddr: 0x100002918, symSize: 0x17C }
  - { offsetInCU: 0x582C, offset: 0x582C, size: 0x8, addend: 0x0, symName: __ZN9ULListStr9pop_frontEv, symObjAddr: 0x6C8, symBinAddr: 0x100002A94, symSize: 0x19C }
  - { offsetInCU: 0x5866, offset: 0x5866, size: 0x8, addend: 0x0, symName: __ZNK9ULListStr4backEv, symObjAddr: 0x864, symBinAddr: 0x100002C30, symSize: 0xB4 }
  - { offsetInCU: 0x58AD, offset: 0x58AD, size: 0x8, addend: 0x0, symName: __ZNSt3__112basic_stringIcNS_11char_traitsIcEENS_9allocatorIcEEEC1B7v160006IDnEEPKc, symObjAddr: 0x918, symBinAddr: 0x100002CE4, symSize: 0x34 }
  - { offsetInCU: 0x58E9, offset: 0x58E9, size: 0x8, addend: 0x0, symName: __ZNK9ULListStr5frontEv, symObjAddr: 0x94C, symBinAddr: 0x100002D18, symSize: 0x88 }
  - { offsetInCU: 0x590F, offset: 0x590F, size: 0x8, addend: 0x0, symName: __ZNK9ULListStr11getValAtLocEm, symObjAddr: 0x9D4, symBinAddr: 0x100002DA0, symSize: 0xC8 }
  - { offsetInCU: 0x597B, offset: 0x597B, size: 0x8, addend: 0x0, symName: __ZN9ULListStr3setEmRKNSt3__112basic_stringIcNS0_11char_traitsIcEENS0_9allocatorIcEEEE, symObjAddr: 0xA9C, symBinAddr: 0x100002E68, symSize: 0xAC }
  - { offsetInCU: 0x59CB, offset: 0x59CB, size: 0x8, addend: 0x0, symName: __ZNSt16invalid_argumentC1B7v160006EPKc, symObjAddr: 0xB48, symBinAddr: 0x100002F14, symSize: 0x34 }
  - { offsetInCU: 0x5A01, offset: 0x5A01, size: 0x8, addend: 0x0, symName: __ZN9ULListStr3getEm, symObjAddr: 0xB7C, symBinAddr: 0x100002F48, symSize: 0xA0 }
  - { offsetInCU: 0x5A43, offset: 0x5A43, size: 0x8, addend: 0x0, symName: __ZNK9ULListStr3getEm, symObjAddr: 0xC1C, symBinAddr: 0x100002FE8, symSize: 0xA0 }
  - { offsetInCU: 0x5A85, offset: 0x5A85, size: 0x8, addend: 0x0, symName: __ZN9ULListStr4ItemC2Ev, symObjAddr: 0xCBC, symBinAddr: 0x100003088, symSize: 0xEC }
  - { offsetInCU: 0x5AAD, offset: 0x5AAD, size: 0x8, addend: 0x0, symName: __ZNSt3__112basic_stringIcNS_11char_traitsIcEENS_9allocatorIcEEEC1B7v160006Ev, symObjAddr: 0xDA8, symBinAddr: 0x100003174, symSize: 0x2C }
  - { offsetInCU: 0x5AD5, offset: 0x5AD5, size: 0x8, addend: 0x0, symName: __ZNSt3__112basic_stringIcNS_11char_traitsIcEENS_9allocatorIcEEEC2B7v160006Ev, symObjAddr: 0xDE0, symBinAddr: 0x1000031AC, symSize: 0x44 }
  - { offsetInCU: 0x5B02, offset: 0x5B02, size: 0x8, addend: 0x0, symName: __ZNSt3__117__compressed_pairINS_12basic_stringIcNS_11char_traitsIcEENS_9allocatorIcEEE5__repES5_EC1B7v160006INS_18__default_init_tagESA_EEOT_OT0_, symObjAddr: 0xE24, symBinAddr: 0x1000031F0, symSize: 0x3C }
  - { offsetInCU: 0x5B58, offset: 0x5B58, size: 0x8, addend: 0x0, symName: __ZNSt3__112basic_stringIcNS_11char_traitsIcEENS_9allocatorIcEEE14__default_initB7v160006Ev, symObjAddr: 0xE70, symBinAddr: 0x10000323C, symSize: 0xB0 }
  - { offsetInCU: 0x5BA8, offset: 0x5BA8, size: 0x8, addend: 0x0, symName: __ZNSt3__117__compressed_pairINS_12basic_stringIcNS_11char_traitsIcEENS_9allocatorIcEEE5__repES5_EC2B7v160006INS_18__default_init_tagESA_EEOT_OT0_, symObjAddr: 0xF20, symBinAddr: 0x1000032EC, symSize: 0x3C }
  - { offsetInCU: 0x5BFE, offset: 0x5BFE, size: 0x8, addend: 0x0, symName: __ZNSt3__122__compressed_pair_elemINS_12basic_stringIcNS_11char_traitsIcEENS_9allocatorIcEEE5__repELi0ELb0EEC2B7v160006ENS_18__default_init_tagE, symObjAddr: 0xF5C, symBinAddr: 0x100003328, symSize: 0x14 }
  - { offsetInCU: 0x5C30, offset: 0x5C30, size: 0x8, addend: 0x0, symName: __ZNSt3__122__compressed_pair_elemINS_9allocatorIcEELi1ELb1EEC2B7v160006ENS_18__default_init_tagE, symObjAddr: 0xF70, symBinAddr: 0x10000333C, symSize: 0x2C }
  - { offsetInCU: 0x5C62, offset: 0x5C62, size: 0x8, addend: 0x0, symName: __ZNSt3__19allocatorIcEC2B7v160006Ev, symObjAddr: 0xF9C, symBinAddr: 0x100003368, symSize: 0x2C }
  - { offsetInCU: 0x5C8A, offset: 0x5C8A, size: 0x8, addend: 0x0, symName: __ZNSt3__116__non_trivial_ifILb1ENS_9allocatorIcEEEC2B7v160006Ev, symObjAddr: 0xFC8, symBinAddr: 0x100003394, symSize: 0x14 }
  - { offsetInCU: 0x5CB2, offset: 0x5CB2, size: 0x8, addend: 0x0, symName: __ZNSt3__117__compressed_pairINS_12basic_stringIcNS_11char_traitsIcEENS_9allocatorIcEEE5__repES5_E5firstB7v160006Ev, symObjAddr: 0xFDC, symBinAddr: 0x1000033A8, symSize: 0x24 }
  - { offsetInCU: 0x5CD6, offset: 0x5CD6, size: 0x8, addend: 0x0, symName: __ZNSt3__112basic_stringIcNS_11char_traitsIcEENS_9allocatorIcEEE11__recommendB7v160006Em, symObjAddr: 0x100C, symBinAddr: 0x1000033D8, symSize: 0x9C }
  - { offsetInCU: 0x5D08, offset: 0x5D08, size: 0x8, addend: 0x0, symName: __ZNSt3__116allocator_traitsINS_9allocatorIcEEE8allocateB7v160006ERS2_m, symObjAddr: 0x10A8, symBinAddr: 0x100003474, symSize: 0x2C }
  - { offsetInCU: 0x5D3A, offset: 0x5D3A, size: 0x8, addend: 0x0, symName: __ZNSt3__112basic_stringIcNS_11char_traitsIcEENS_9allocatorIcEEE7__allocB7v160006Ev, symObjAddr: 0x10D4, symBinAddr: 0x1000034A0, symSize: 0x24 }
  - { offsetInCU: 0x5D5E, offset: 0x5D5E, size: 0x8, addend: 0x0, symName: __ZNSt3__112basic_stringIcNS_11char_traitsIcEENS_9allocatorIcEEE16__begin_lifetimeB7v160006EPcm, symObjAddr: 0x10F8, symBinAddr: 0x1000034C4, symSize: 0x14 }
  - { offsetInCU: 0x5D90, offset: 0x5D90, size: 0x8, addend: 0x0, symName: __ZNSt3__112basic_stringIcNS_11char_traitsIcEENS_9allocatorIcEEE18__set_long_pointerB7v160006EPc, symObjAddr: 0x110C, symBinAddr: 0x1000034D8, symSize: 0x38 }
  - { offsetInCU: 0x5DC3, offset: 0x5DC3, size: 0x8, addend: 0x0, symName: __ZNSt3__112basic_stringIcNS_11char_traitsIcEENS_9allocatorIcEEE14__set_long_capB7v160006Em, symObjAddr: 0x1144, symBinAddr: 0x100003510, symSize: 0x70 }
  - { offsetInCU: 0x5DF6, offset: 0x5DF6, size: 0x8, addend: 0x0, symName: __ZNSt3__112basic_stringIcNS_11char_traitsIcEENS_9allocatorIcEEE15__set_long_sizeB7v160006Em, symObjAddr: 0x11B4, symBinAddr: 0x100003580, symSize: 0x38 }
  - { offsetInCU: 0x5E29, offset: 0x5E29, size: 0x8, addend: 0x0, symName: __ZNSt3__122__compressed_pair_elemINS_12basic_stringIcNS_11char_traitsIcEENS_9allocatorIcEEE5__repELi0ELb0EE5__getB7v160006Ev, symObjAddr: 0x11EC, symBinAddr: 0x1000035B8, symSize: 0x14 }
  - { offsetInCU: 0x5E4D, offset: 0x5E4D, size: 0x8, addend: 0x0, symName: __ZNSt3__112basic_stringIcNS_11char_traitsIcEENS_9allocatorIcEEE10__align_itB7v160006ILm16EEEmm, symObjAddr: 0x1200, symBinAddr: 0x1000035CC, symSize: 0x1C }
  - { offsetInCU: 0x5E7A, offset: 0x5E7A, size: 0x8, addend: 0x0, symName: __ZNSt3__19allocatorIcE8allocateB7v160006Em, symObjAddr: 0x121C, symBinAddr: 0x1000035E8, symSize: 0x84 }
  - { offsetInCU: 0x5EB6, offset: 0x5EB6, size: 0x8, addend: 0x0, symName: __ZNSt3__116allocator_traitsINS_9allocatorIcEEE8max_sizeB7v160006IS2_vEEmRKS2_, symObjAddr: 0x12A0, symBinAddr: 0x10000366C, symSize: 0x24 }
  - { offsetInCU: 0x5EE3, offset: 0x5EE3, size: 0x8, addend: 0x0, symName: __ZNKSt3__19allocatorIcE8max_sizeB7v160006Ev, symObjAddr: 0x1320, symBinAddr: 0x1000036EC, symSize: 0x14 }
  - { offsetInCU: 0x5F07, offset: 0x5F07, size: 0x8, addend: 0x0, symName: __ZNSt3__117__compressed_pairINS_12basic_stringIcNS_11char_traitsIcEENS_9allocatorIcEEE5__repES5_E6secondB7v160006Ev, symObjAddr: 0x1358, symBinAddr: 0x100003724, symSize: 0x24 }
  - { offsetInCU: 0x5F2B, offset: 0x5F2B, size: 0x8, addend: 0x0, symName: __ZNSt3__122__compressed_pair_elemINS_9allocatorIcEELi1ELb1EE5__getB7v160006Ev, symObjAddr: 0x137C, symBinAddr: 0x100003748, symSize: 0x14 }
  - { offsetInCU: 0x5F4F, offset: 0x5F4F, size: 0x8, addend: 0x0, symName: __ZN9ULListStr4ItemD2Ev, symObjAddr: 0x1390, symBinAddr: 0x10000375C, symSize: 0xD0 }
  - { offsetInCU: 0x5F79, offset: 0x5F79, size: 0x8, addend: 0x0, symName: __ZNSt16invalid_argumentC2B7v160006EPKc, symObjAddr: 0x1460, symBinAddr: 0x10000382C, symSize: 0x4C }
  - { offsetInCU: 0x5FAF, offset: 0x5FAF, size: 0x8, addend: 0x0, symName: __ZNSt3__112basic_stringIcNS_11char_traitsIcEENS_9allocatorIcEEEC2B7v160006IDnEEPKc, symObjAddr: 0x14AC, symBinAddr: 0x100003878, symSize: 0x60 }
  - { offsetInCU: 0x5FEB, offset: 0x5FEB, size: 0x8, addend: 0x0, symName: __ZNSt3__111char_traitsIcE6lengthEPKc, symObjAddr: 0x150C, symBinAddr: 0x1000038D8, symSize: 0x48 }
  - { offsetInCU: 0x4000, offset: 0xA030, size: 0x8, addend: 0x0, symName: __ZNSt3__14endlB7v160006IcNS_11char_traitsIcEEEERNS_13basic_ostreamIT_T0_EES7_, symObjAddr: 0x160, symBinAddr: 0x100003A64, symSize: 0x58 }
  - { offsetInCU: 0x4040, offset: 0xA070, size: 0x8, addend: 0x0, symName: __ZNSt3__19use_facetB7v160006INS_5ctypeIcEEEERKT_RKNS_6localeE, symObjAddr: 0x418, symBinAddr: 0x100003B48, symSize: 0x2C }
  - { offsetInCU: 0x646D, offset: 0xC49D, size: 0x8, addend: 0x0, symName: _main, symObjAddr: 0x0, symBinAddr: 0x100003944, symSize: 0xF4 }
  - { offsetInCU: 0x6564, offset: 0xC594, size: 0x8, addend: 0x0, symName: __ZNSt3__113basic_ostreamIcNS_11char_traitsIcEEElsB7v160006EPFRS3_S4_E, symObjAddr: 0x134, symBinAddr: 0x100003A38, symSize: 0x2C }
  - { offsetInCU: 0x6596, offset: 0xC5C6, size: 0x8, addend: 0x0, symName: __ZNKSt3__19basic_iosIcNS_11char_traitsIcEEE5widenB7v160006Ec, symObjAddr: 0x38C, symBinAddr: 0x100003ABC, symSize: 0x8C }
  - { offsetInCU: 0x6603, offset: 0xC633, size: 0x8, addend: 0x0, symName: __ZNKSt3__15ctypeIcE5widenB7v160006Ec, symObjAddr: 0x444, symBinAddr: 0x100003B74, symSize: 0x38 }
...
